target datalayout = "e-m:e-p270:32:32-p271:32:32-p272:64:64-i64:64-i128:128-f80:128-n8:16:32:64-S128"
target triple = "x86_64-pc-linux-gnu"

@.str.7 = private unnamed_addr constant [20 x i8] c"x509_pem_cert_chain\00", align 1

; Function Attrs: inlinehint mustprogress uwtable
define linkonce_odr ptr @sk_X509_value(ptr noundef %0, i64 noundef %1) #10 comdat {
  %3 = alloca ptr, align 8
  %4 = alloca i64, align 8
  store ptr %0, ptr %3, align 8, !tbaa !67
  store i64 %1, ptr %4, align 8, !tbaa !26
  %5 = load ptr, ptr %3, align 8, !tbaa !67
  %6 = load i64, ptr %4, align 8, !tbaa !26
  %7 = call ptr @OPENSSL_sk_value(ptr noundef %5, i64 noundef %6)
  ret ptr %7
}

; Function Attrs: inlinehint mustprogress uwtable
define linkonce_odr i64 @sk_X509_num(ptr noundef %0) #10 comdat {
  %2 = alloca ptr, align 8
  store ptr %0, ptr %2, align 8, !tbaa !67
  %3 = load ptr, ptr %2, align 8, !tbaa !67
  %4 = call i64 @OPENSSL_sk_num(ptr noundef %3)
  ret i64 %4
}

; Function Attrs: mustprogress uwtable
define noundef i32 @_Z31tsi_ssl_get_cert_chain_contentsP13stack_st_X509P17tsi_peer_property(ptr noundef %0, ptr noundef %1) #4 {
  %3 = alloca i32, align 4
  %4 = alloca ptr, align 8
  %5 = alloca ptr, align 8
  %6 = alloca ptr, align 8
  %7 = alloca i64, align 8
  %8 = alloca i64, align 8
  %9 = alloca i32, align 4
  %10 = alloca ptr, align 8
  %11 = alloca i64, align 8
  %12 = alloca i32, align 4
  store ptr %0, ptr %4, align 8, !tbaa !67
  store ptr %1, ptr %5, align 8, !tbaa !69
  call void @llvm.lifetime.start.p0(i64 8, ptr %6) #3
  %13 = call ptr @BIO_s_mem()
  %14 = call ptr @BIO_new(ptr noundef %13)
  store ptr %14, ptr %6, align 8, !tbaa !14
  call void @llvm.lifetime.start.p0(i64 8, ptr %7) #3
  %15 = load ptr, ptr %4, align 8, !tbaa !67
  %16 = call i64 @sk_X509_num(ptr noundef %15)
  store i64 %16, ptr %7, align 8, !tbaa !26
  call void @llvm.lifetime.start.p0(i64 8, ptr %8) #3
  store i64 0, ptr %8, align 8, !tbaa !26
  br label %17

17:                                               ; preds = %33, %2
  %18 = load i64, ptr %8, align 8, !tbaa !26
  %19 = load i64, ptr %7, align 8, !tbaa !26
  %20 = icmp ult i64 %18, %19
  br i1 %20, label %22, label %21

21:                                               ; preds = %17
  store i32 2, ptr %9, align 4
  br label %36

22:                                               ; preds = %17
  %23 = load ptr, ptr %6, align 8, !tbaa !14
  %24 = load ptr, ptr %4, align 8, !tbaa !67
  %25 = load i64, ptr %8, align 8, !tbaa !26
  %26 = call ptr @sk_X509_value(ptr noundef %24, i64 noundef %25)
  %27 = call i32 @PEM_write_bio_X509(ptr noundef %23, ptr noundef %26)
  %28 = icmp ne i32 %27, 0
  br i1 %28, label %32, label %29

29:                                               ; preds = %22
  %30 = load ptr, ptr %6, align 8, !tbaa !14
  %31 = call i32 @BIO_free(ptr noundef %30)
  store i32 7, ptr %3, align 4
  store i32 1, ptr %9, align 4
  br label %36

32:                                               ; preds = %22
  br label %33

33:                                               ; preds = %32
  %34 = load i64, ptr %8, align 8, !tbaa !26
  %35 = add i64 %34, 1
  store i64 %35, ptr %8, align 8, !tbaa !26
  br label %17, !llvm.loop !70

36:                                               ; preds = %29, %21
  call void @llvm.lifetime.end.p0(i64 8, ptr %8) #3
  %37 = load i32, ptr %9, align 4
  switch i32 %37, label %55 [
    i32 2, label %38
  ]

38:                                               ; preds = %36
  call void @llvm.lifetime.start.p0(i64 8, ptr %10) #3
  call void @llvm.lifetime.start.p0(i64 8, ptr %11) #3
  %39 = load ptr, ptr %6, align 8, !tbaa !14
  %40 = call i64 @BIO_get_mem_data(ptr noundef %39, ptr noundef %10)
  store i64 %40, ptr %11, align 8, !tbaa !26
  %41 = load i64, ptr %11, align 8, !tbaa !26
  %42 = icmp sle i64 %41, 0
  br i1 %42, label %43, label %46

43:                                               ; preds = %38
  %44 = load ptr, ptr %6, align 8, !tbaa !14
  %45 = call i32 @BIO_free(ptr noundef %44)
  store i32 7, ptr %3, align 4
  store i32 1, ptr %9, align 4
  br label %54

46:                                               ; preds = %38
  call void @llvm.lifetime.start.p0(i64 4, ptr %12) #3
  %47 = load ptr, ptr %10, align 8, !tbaa !3
  %48 = load i64, ptr %11, align 8, !tbaa !26
  %49 = load ptr, ptr %5, align 8, !tbaa !69
  %50 = call noundef i32 @_Z34tsi_construct_string_peer_propertyPKcS0_mP17tsi_peer_property(ptr noundef @.str.7, ptr noundef %47, i64 noundef %48, ptr noundef %49)
  store i32 %50, ptr %12, align 4, !tbaa !10
  %51 = load ptr, ptr %6, align 8, !tbaa !14
  %52 = call i32 @BIO_free(ptr noundef %51)
  %53 = load i32, ptr %12, align 4, !tbaa !10
  store i32 %53, ptr %3, align 4
  store i32 1, ptr %9, align 4
  call void @llvm.lifetime.end.p0(i64 4, ptr %12) #3
  br label %54

54:                                               ; preds = %46, %43
  call void @llvm.lifetime.end.p0(i64 8, ptr %11) #3
  call void @llvm.lifetime.end.p0(i64 8, ptr %10) #3
  br label %55

55:                                               ; preds = %54, %36
  call void @llvm.lifetime.end.p0(i64 8, ptr %7) #3
  call void @llvm.lifetime.end.p0(i64 8, ptr %6) #3
  %56 = load i32, ptr %3, align 4
  ret i32 %56
}