; Function Attrs: mustprogress uwtable
define noundef i32 @_Z31tsi_ssl_get_cert_chain_contentsP13stack_st_X509P17tsi_peer_property(ptr noundef %0, ptr noundef %1) local_unnamed_addr #3 {
  %3 = alloca ptr, align 8
  %4 = tail call ptr @BIO_s_mem()
  %5 = tail call ptr @BIO_new(ptr noundef %4)
  %6 = tail call i64 @OPENSSL_sk_num(ptr noundef %0)
  %.not1819.not = icmp eq i64 %6, 0
  br i1 %.not1819.not, label %.critedge, label %.lr.ph

7:                                                ; preds = %.lr.ph
  %8 = add nuw i64 %.01620, 1
  %exitcond.not = icmp eq i64 %8, %6
  br i1 %exitcond.not, label %.critedge, label %.lr.ph, !llvm.loop !42

.lr.ph:                                           ; preds = %2, %7
  %.01620 = phi i64 [ %8, %7 ], [ 0, %2 ]
  %9 = tail call ptr @OPENSSL_sk_value(ptr noundef %0, i64 noundef %.01620)
  %10 = tail call i32 @PEM_write_bio_X509(ptr noundef %5, ptr noundef %9)
  %.not = icmp eq i32 %10, 0
  br i1 %.not, label %11, label %7

11:                                               ; preds = %.lr.ph
  %12 = tail call i32 @BIO_free(ptr noundef %5)
  br label %20

.critedge:                                        ; preds = %7, %2
  call void @llvm.lifetime.start.p0(i64 8, ptr nonnull %3) #32
  %13 = call i64 @BIO_get_mem_data(ptr noundef %5, ptr noundef nonnull %3)
  %14 = icmp slt i64 %13, 1
  br i1 %14, label %18, label %15

15:                                               ; preds = %.critedge
  %16 = load ptr, ptr %3, align 8, !tbaa !23
  %17 = call noundef i32 @_Z34tsi_construct_string_peer_propertyPKcS0_mP17tsi_peer_property(ptr noundef nonnull @.str.7, ptr noundef %16, i64 noundef %13, ptr noundef %1)
  br label %18

18:                                               ; preds = %.critedge, %15
  %.2 = phi i32 [ %17, %15 ], [ 7, %.critedge ]
  %19 = call i32 @BIO_free(ptr noundef %5)
  call void @llvm.lifetime.end.p0(i64 8, ptr nonnull %3) #32
  br label %20

20:                                               ; preds = %11, %18
  %.1 = phi i32 [ %.2, %18 ], [ 7, %11 ]
  ret i32 %.1
}